#include <math.h>
#include <stdio.h>
#include <stdlib.h>
#include <string.h>
#define LEN 100
#define ASCII 100
#define MAX_N 100
#define MAX_N 100
#define L 100
#define MAX 100
#define ASC 100
#define null 0
#define Len 100
#define M 100
#define SUM 100
#define NUMBER 100
#define SIZE 100
#define N 100
#define Max 100
#define X 100
#define Y 100
#define A 100
#define MAXN 100
#define MAXSIZE 100

struct book
{
    int num;
    char author[27];
}book[1000];

int main()
{
    int n, i, a, max=0, alp[26]={0};
    char *j;

    scanf("%d", &n);
    for(i=0;i<n;i++)
    {
        scanf("%d %s", &book[i].num, book[i].author);
        int len=strlen(book[i].author);
        for(j=book[i].author;j<(book[i].author+len);j++)
        {
            int x=*j;
            ++*(alp+x-65);
            if(*(alp+x-65)>max)
            {
                max=*(alp+x-65);
                a=x;
            }
        }
    }

    printf("%c\n%d\n", a, max);

    for(i=0;i<n;i++)
    {
        int len=strlen(book[i].author);
        for(j=book[i].author;j<(book[i].author+len);j++)
        {
            if((int)*j==a)
                printf("%d\n", book[i].num);
        }
    }

    return 0;
}
