; ModuleID = '2/1204.c'
source_filename = "2/1204.c"
target datalayout = "e-m:e-p270:32:32-p271:32:32-p272:64:64-i64:64-f80:128-n8:16:32:64-S128"
target triple = "x86_64-pc-linux-gnu"

%struct.book = type { i32, [27 x i8] }

@.str = private unnamed_addr constant [3 x i8] c"%d\00", align 1
@.str.1 = private unnamed_addr constant [6 x i8] c"%d %s\00", align 1
@book = common dso_local global [1000 x %struct.book] zeroinitializer, align 16
@.str.2 = private unnamed_addr constant [7 x i8] c"%c\0A%d\0A\00", align 1
@.str.3 = private unnamed_addr constant [4 x i8] c"%d\0A\00", align 1

; Function Attrs: noinline nounwind uwtable
define dso_local i32 @main() #0 {
  %1 = alloca i32, align 4
  %2 = alloca i32, align 4
  %3 = alloca i32, align 4
  %4 = alloca i32, align 4
  %5 = alloca i32, align 4
  %6 = alloca [26 x i32], align 16
  %7 = alloca i8*, align 8
  %8 = alloca i32, align 4
  %9 = alloca i32, align 4
  %10 = alloca i32, align 4
  store i32 0, i32* %1, align 4
  store i32 0, i32* %5, align 4
  %11 = bitcast [26 x i32]* %6 to i8*
  call void @llvm.memset.p0i8.i64(i8* align 16 %11, i8 0, i64 104, i1 false)
  %12 = call i32 (i8*, ...) @__isoc99_scanf(i8* getelementptr inbounds ([3 x i8], [3 x i8]* @.str, i64 0, i64 0), i32* %2)
  store i32 0, i32* %3, align 4
  br label %13

13:                                               ; preds = %83, %0
  %14 = load i32, i32* %3, align 4
  %15 = load i32, i32* %2, align 4
  %16 = icmp slt i32 %14, %15
  br i1 %16, label %17, label %86

17:                                               ; preds = %13
  %18 = load i32, i32* %3, align 4
  %19 = sext i32 %18 to i64
  %20 = getelementptr inbounds [1000 x %struct.book], [1000 x %struct.book]* @book, i64 0, i64 %19
  %21 = getelementptr inbounds %struct.book, %struct.book* %20, i32 0, i32 0
  %22 = load i32, i32* %3, align 4
  %23 = sext i32 %22 to i64
  %24 = getelementptr inbounds [1000 x %struct.book], [1000 x %struct.book]* @book, i64 0, i64 %23
  %25 = getelementptr inbounds %struct.book, %struct.book* %24, i32 0, i32 1
  %26 = getelementptr inbounds [27 x i8], [27 x i8]* %25, i64 0, i64 0
  %27 = call i32 (i8*, ...) @__isoc99_scanf(i8* getelementptr inbounds ([6 x i8], [6 x i8]* @.str.1, i64 0, i64 0), i32* %21, i8* %26)
  %28 = load i32, i32* %3, align 4
  %29 = sext i32 %28 to i64
  %30 = getelementptr inbounds [1000 x %struct.book], [1000 x %struct.book]* @book, i64 0, i64 %29
  %31 = getelementptr inbounds %struct.book, %struct.book* %30, i32 0, i32 1
  %32 = getelementptr inbounds [27 x i8], [27 x i8]* %31, i64 0, i64 0
  %33 = call i64 @strlen(i8* %32) #4
  %34 = trunc i64 %33 to i32
  store i32 %34, i32* %8, align 4
  %35 = load i32, i32* %3, align 4
  %36 = sext i32 %35 to i64
  %37 = getelementptr inbounds [1000 x %struct.book], [1000 x %struct.book]* @book, i64 0, i64 %36
  %38 = getelementptr inbounds %struct.book, %struct.book* %37, i32 0, i32 1
  %39 = getelementptr inbounds [27 x i8], [27 x i8]* %38, i64 0, i64 0
  store i8* %39, i8** %7, align 8
  br label %40

40:                                               ; preds = %79, %17
  %41 = load i8*, i8** %7, align 8
  %42 = load i32, i32* %3, align 4
  %43 = sext i32 %42 to i64
  %44 = getelementptr inbounds [1000 x %struct.book], [1000 x %struct.book]* @book, i64 0, i64 %43
  %45 = getelementptr inbounds %struct.book, %struct.book* %44, i32 0, i32 1
  %46 = getelementptr inbounds [27 x i8], [27 x i8]* %45, i64 0, i64 0
  %47 = load i32, i32* %8, align 4
  %48 = sext i32 %47 to i64
  %49 = getelementptr inbounds i8, i8* %46, i64 %48
  %50 = icmp ult i8* %41, %49
  br i1 %50, label %51, label %82

51:                                               ; preds = %40
  %52 = load i8*, i8** %7, align 8
  %53 = load i8, i8* %52, align 1
  %54 = sext i8 %53 to i32
  store i32 %54, i32* %9, align 4
  %55 = getelementptr inbounds [26 x i32], [26 x i32]* %6, i64 0, i64 0
  %56 = load i32, i32* %9, align 4
  %57 = sext i32 %56 to i64
  %58 = getelementptr inbounds i32, i32* %55, i64 %57
  %59 = getelementptr inbounds i32, i32* %58, i64 -65
  %60 = load i32, i32* %59, align 4
  %61 = add nsw i32 %60, 1
  store i32 %61, i32* %59, align 4
  %62 = getelementptr inbounds [26 x i32], [26 x i32]* %6, i64 0, i64 0
  %63 = load i32, i32* %9, align 4
  %64 = sext i32 %63 to i64
  %65 = getelementptr inbounds i32, i32* %62, i64 %64
  %66 = getelementptr inbounds i32, i32* %65, i64 -65
  %67 = load i32, i32* %66, align 4
  %68 = load i32, i32* %5, align 4
  %69 = icmp sgt i32 %67, %68
  br i1 %69, label %70, label %78

70:                                               ; preds = %51
  %71 = getelementptr inbounds [26 x i32], [26 x i32]* %6, i64 0, i64 0
  %72 = load i32, i32* %9, align 4
  %73 = sext i32 %72 to i64
  %74 = getelementptr inbounds i32, i32* %71, i64 %73
  %75 = getelementptr inbounds i32, i32* %74, i64 -65
  %76 = load i32, i32* %75, align 4
  store i32 %76, i32* %5, align 4
  %77 = load i32, i32* %9, align 4
  store i32 %77, i32* %4, align 4
  br label %78

78:                                               ; preds = %70, %51
  br label %79

79:                                               ; preds = %78
  %80 = load i8*, i8** %7, align 8
  %81 = getelementptr inbounds i8, i8* %80, i32 1
  store i8* %81, i8** %7, align 8
  br label %40

82:                                               ; preds = %40
  br label %83

83:                                               ; preds = %82
  %84 = load i32, i32* %3, align 4
  %85 = add nsw i32 %84, 1
  store i32 %85, i32* %3, align 4
  br label %13

86:                                               ; preds = %13
  %87 = load i32, i32* %4, align 4
  %88 = load i32, i32* %5, align 4
  %89 = call i32 (i8*, ...) @printf(i8* getelementptr inbounds ([7 x i8], [7 x i8]* @.str.2, i64 0, i64 0), i32 %87, i32 %88)
  store i32 0, i32* %3, align 4
  br label %90

90:                                               ; preds = %136, %86
  %91 = load i32, i32* %3, align 4
  %92 = load i32, i32* %2, align 4
  %93 = icmp slt i32 %91, %92
  br i1 %93, label %94, label %139

94:                                               ; preds = %90
  %95 = load i32, i32* %3, align 4
  %96 = sext i32 %95 to i64
  %97 = getelementptr inbounds [1000 x %struct.book], [1000 x %struct.book]* @book, i64 0, i64 %96
  %98 = getelementptr inbounds %struct.book, %struct.book* %97, i32 0, i32 1
  %99 = getelementptr inbounds [27 x i8], [27 x i8]* %98, i64 0, i64 0
  %100 = call i64 @strlen(i8* %99) #4
  %101 = trunc i64 %100 to i32
  store i32 %101, i32* %10, align 4
  %102 = load i32, i32* %3, align 4
  %103 = sext i32 %102 to i64
  %104 = getelementptr inbounds [1000 x %struct.book], [1000 x %struct.book]* @book, i64 0, i64 %103
  %105 = getelementptr inbounds %struct.book, %struct.book* %104, i32 0, i32 1
  %106 = getelementptr inbounds [27 x i8], [27 x i8]* %105, i64 0, i64 0
  store i8* %106, i8** %7, align 8
  br label %107

107:                                              ; preds = %132, %94
  %108 = load i8*, i8** %7, align 8
  %109 = load i32, i32* %3, align 4
  %110 = sext i32 %109 to i64
  %111 = getelementptr inbounds [1000 x %struct.book], [1000 x %struct.book]* @book, i64 0, i64 %110
  %112 = getelementptr inbounds %struct.book, %struct.book* %111, i32 0, i32 1
  %113 = getelementptr inbounds [27 x i8], [27 x i8]* %112, i64 0, i64 0
  %114 = load i32, i32* %10, align 4
  %115 = sext i32 %114 to i64
  %116 = getelementptr inbounds i8, i8* %113, i64 %115
  %117 = icmp ult i8* %108, %116
  br i1 %117, label %118, label %135

118:                                              ; preds = %107
  %119 = load i8*, i8** %7, align 8
  %120 = load i8, i8* %119, align 1
  %121 = sext i8 %120 to i32
  %122 = load i32, i32* %4, align 4
  %123 = icmp eq i32 %121, %122
  br i1 %123, label %124, label %131

124:                                              ; preds = %118
  %125 = load i32, i32* %3, align 4
  %126 = sext i32 %125 to i64
  %127 = getelementptr inbounds [1000 x %struct.book], [1000 x %struct.book]* @book, i64 0, i64 %126
  %128 = getelementptr inbounds %struct.book, %struct.book* %127, i32 0, i32 0
  %129 = load i32, i32* %128, align 16
  %130 = call i32 (i8*, ...) @printf(i8* getelementptr inbounds ([4 x i8], [4 x i8]* @.str.3, i64 0, i64 0), i32 %129)
  br label %131

131:                                              ; preds = %124, %118
  br label %132

132:                                              ; preds = %131
  %133 = load i8*, i8** %7, align 8
  %134 = getelementptr inbounds i8, i8* %133, i32 1
  store i8* %134, i8** %7, align 8
  br label %107

135:                                              ; preds = %107
  br label %136

136:                                              ; preds = %135
  %137 = load i32, i32* %3, align 4
  %138 = add nsw i32 %137, 1
  store i32 %138, i32* %3, align 4
  br label %90

139:                                              ; preds = %90
  ret i32 0
}

; Function Attrs: argmemonly nounwind willreturn
declare void @llvm.memset.p0i8.i64(i8* nocapture writeonly, i8, i64, i1 immarg) #1

declare dso_local i32 @__isoc99_scanf(i8*, ...) #2

; Function Attrs: nounwind readonly
declare dso_local i64 @strlen(i8*) #3

declare dso_local i32 @printf(i8*, ...) #2


!llvm.module.flags = !{!0}
!llvm.ident = !{!1}

!0 = !{i32 1, !"wchar_size", i32 4}
!1 = !{!"clang version 10.0.0-4ubuntu1 "}
